; Function Attrs: nounwind uwtable
define internal void @_cred_state_pack(ptr noundef %0, i16 noundef zeroext %1, ptr noundef %2) #0 {
  %4 = getelementptr inbounds nuw i8, ptr %0, i64 16
  tail call void @pack_step_id(ptr noundef nonnull %4, ptr noundef %2, i16 noundef zeroext %1) #10
  %5 = load i64, ptr %0, align 8
  tail call void @pack_time(i64 noundef %5, ptr noundef %2) #10
  %6 = getelementptr inbounds nuw i8, ptr %0, i64 8
  %7 = load i64, ptr %6, align 8
  tail call void @pack_time(i64 noundef %7, ptr noundef %2) #10
  ret void
}